; Function Attrs: mustprogress uwtable
define dso_local void @_ZN7ImGuiIO18AddMouseWheelEventEff(ptr noundef nonnull readonly align 8 captures(none) dereferenceable(2944) %0, float noundef %1, float noundef %2) local_unnamed_addr #0 align 2 {
  %4 = alloca %struct.ImGuiInputEvent, align 4
  %5 = getelementptr inbounds nuw i8, ptr %0, i64 208
  %6 = load ptr, ptr %5, align 8, !tbaa !91
  %7 = getelementptr inbounds nuw i8, ptr %0, i64 2921
  %8 = load i8, ptr %7, align 1, !tbaa !84, !range !92, !noundef !93
  %9 = trunc nuw i8 %8 to i1
  br i1 %9, label %10, label %26

10:                                               ; preds = %3
  %11 = fcmp oeq float %1, 0.000000e+00
  %12 = fcmp oeq float %2, 0.000000e+00
  %or.cond = and i1 %11, %12
  br i1 %or.cond, label %26, label %13

13:                                               ; preds = %10
  call void @llvm.lifetime.start.p0(i64 28, ptr nonnull %4) #44
  %14 = getelementptr inbounds nuw i8, ptr %4, i64 24
  store i32 0, ptr %14, align 4
  store i32 2, ptr %4, align 4, !tbaa !94
  %15 = getelementptr inbounds nuw i8, ptr %4, i64 4
  store i32 1, ptr %15, align 4, !tbaa !98
  %16 = getelementptr inbounds nuw i8, ptr %6, i64 4828
  %17 = load i32, ptr %16, align 4, !tbaa !99
  %18 = add i32 %17, 1
  store i32 %18, ptr %16, align 4, !tbaa !99
  %19 = getelementptr inbounds nuw i8, ptr %4, i64 8
  store i32 %17, ptr %19, align 4, !tbaa !205
  %20 = getelementptr inbounds nuw i8, ptr %4, i64 12
  store float %1, ptr %20, align 4, !tbaa !206
  %21 = getelementptr inbounds nuw i8, ptr %4, i64 16
  store float %2, ptr %21, align 4, !tbaa !206
  %22 = getelementptr inbounds nuw i8, ptr %6, i64 4824
  %23 = load i32, ptr %22, align 8, !tbaa !236
  %24 = getelementptr inbounds nuw i8, ptr %4, i64 20
  store i32 %23, ptr %24, align 4, !tbaa !206
  %25 = getelementptr inbounds nuw i8, ptr %6, i64 4792
  call void @_ZN8ImVectorI15ImGuiInputEventE9push_backERKS0_(ptr noundef nonnull align 8 dereferenceable(16) %25, ptr noundef nonnull align 4 dereferenceable(25) %4)
  call void @llvm.lifetime.end.p0(i64 28, ptr nonnull %4) #44
  br label %26

26:                                               ; preds = %3, %10, %13
  ret void
}